target datalayout = "e-m:e-p270:32:32-p271:32:32-p272:64:64-i64:64-i128:128-f80:128-n8:16:32:64-S128"
target triple = "x86_64-pc-linux-gnu"

%struct._object = type { %union.anon, ptr }
%union.anon = type { i64 }
%struct._abc_data = type { %struct._object, ptr, ptr, ptr, i64 }

; Function Attrs: inlinehint nounwind uwtable
define internal ptr @_Py_TYPE(ptr noundef %0) #3 {
  %2 = alloca ptr, align 8
  store ptr %0, ptr %2, align 8, !tbaa !4
  %3 = load ptr, ptr %2, align 8, !tbaa !4
  %4 = getelementptr inbounds nuw %struct._object, ptr %3, i32 0, i32 1
  %5 = load ptr, ptr %4, align 8, !tbaa !48
  ret ptr %5
}

; Function Attrs: nounwind uwtable
define internal i32 @abc_data_traverse(ptr noundef %0, ptr noundef %1, ptr noundef %2) #0 {
  %4 = alloca i32, align 4
  %5 = alloca ptr, align 8
  %6 = alloca ptr, align 8
  %7 = alloca ptr, align 8
  %8 = alloca ptr, align 8
  %9 = alloca i32, align 4
  %10 = alloca i32, align 4
  %11 = alloca i32, align 4
  %12 = alloca i32, align 4
  %13 = alloca i32, align 4
  store ptr %0, ptr %5, align 8, !tbaa !4
  store ptr %1, ptr %6, align 8, !tbaa !9
  store ptr %2, ptr %7, align 8, !tbaa !9
  call void @llvm.lifetime.start.p0(i64 8, ptr %8) #5
  %14 = load ptr, ptr %5, align 8, !tbaa !4
  store ptr %14, ptr %8, align 8, !tbaa !9
  br label %15

15:                                               ; preds = %3
  %16 = load ptr, ptr %8, align 8, !tbaa !9
  %17 = call ptr @_Py_TYPE(ptr noundef %16)
  %18 = icmp ne ptr %17, null
  br i1 %18, label %19, label %33

19:                                               ; preds = %15
  call void @llvm.lifetime.start.p0(i64 4, ptr %9) #5
  %20 = load ptr, ptr %6, align 8, !tbaa !9
  %21 = load ptr, ptr %8, align 8, !tbaa !9
  %22 = call ptr @_Py_TYPE(ptr noundef %21)
  %23 = load ptr, ptr %7, align 8, !tbaa !9
  %24 = call i32 %20(ptr noundef %22, ptr noundef %23)
  store i32 %24, ptr %9, align 4, !tbaa !14
  %25 = load i32, ptr %9, align 4, !tbaa !14
  %26 = icmp ne i32 %25, 0
  br i1 %26, label %27, label %29

27:                                               ; preds = %19
  %28 = load i32, ptr %9, align 4, !tbaa !14
  store i32 %28, ptr %4, align 4
  store i32 1, ptr %10, align 4
  br label %30

29:                                               ; preds = %19
  store i32 0, ptr %10, align 4
  br label %30

30:                                               ; preds = %29, %27
  call void @llvm.lifetime.end.p0(i64 4, ptr %9) #5
  %31 = load i32, ptr %10, align 4
  switch i32 %31, label %105 [
    i32 0, label %32
  ]

32:                                               ; preds = %30
  br label %33

33:                                               ; preds = %32, %15
  br label %34

34:                                               ; preds = %33
  br label %35

35:                                               ; preds = %34
  br label %36

36:                                               ; preds = %35
  %37 = load ptr, ptr %8, align 8, !tbaa !9
  %38 = getelementptr inbounds nuw %struct._abc_data, ptr %37, i32 0, i32 1
  %39 = load ptr, ptr %38, align 8, !tbaa !20
  %40 = icmp ne ptr %39, null
  br i1 %40, label %41, label %56

41:                                               ; preds = %36
  call void @llvm.lifetime.start.p0(i64 4, ptr %11) #5
  %42 = load ptr, ptr %6, align 8, !tbaa !9
  %43 = load ptr, ptr %8, align 8, !tbaa !9
  %44 = getelementptr inbounds nuw %struct._abc_data, ptr %43, i32 0, i32 1
  %45 = load ptr, ptr %44, align 8, !tbaa !20
  %46 = load ptr, ptr %7, align 8, !tbaa !9
  %47 = call i32 %42(ptr noundef %45, ptr noundef %46)
  store i32 %47, ptr %11, align 4, !tbaa !14
  %48 = load i32, ptr %11, align 4, !tbaa !14
  %49 = icmp ne i32 %48, 0
  br i1 %49, label %50, label %52

50:                                               ; preds = %41
  %51 = load i32, ptr %11, align 4, !tbaa !14
  store i32 %51, ptr %4, align 4
  store i32 1, ptr %10, align 4
  br label %53

52:                                               ; preds = %41
  store i32 0, ptr %10, align 4
  br label %53

53:                                               ; preds = %52, %50
  call void @llvm.lifetime.end.p0(i64 4, ptr %11) #5
  %54 = load i32, ptr %10, align 4
  switch i32 %54, label %105 [
    i32 0, label %55
  ]

55:                                               ; preds = %53
  br label %56

56:                                               ; preds = %55, %36
  br label %57

57:                                               ; preds = %56
  br label %58

58:                                               ; preds = %57
  br label %59

59:                                               ; preds = %58
  %60 = load ptr, ptr %8, align 8, !tbaa !9
  %61 = getelementptr inbounds nuw %struct._abc_data, ptr %60, i32 0, i32 2
  %62 = load ptr, ptr %61, align 8, !tbaa !23
  %63 = icmp ne ptr %62, null
  br i1 %63, label %64, label %79

64:                                               ; preds = %59
  call void @llvm.lifetime.start.p0(i64 4, ptr %12) #5
  %65 = load ptr, ptr %6, align 8, !tbaa !9
  %66 = load ptr, ptr %8, align 8, !tbaa !9
  %67 = getelementptr inbounds nuw %struct._abc_data, ptr %66, i32 0, i32 2
  %68 = load ptr, ptr %67, align 8, !tbaa !23
  %69 = load ptr, ptr %7, align 8, !tbaa !9
  %70 = call i32 %65(ptr noundef %68, ptr noundef %69)
  store i32 %70, ptr %12, align 4, !tbaa !14
  %71 = load i32, ptr %12, align 4, !tbaa !14
  %72 = icmp ne i32 %71, 0
  br i1 %72, label %73, label %75

73:                                               ; preds = %64
  %74 = load i32, ptr %12, align 4, !tbaa !14
  store i32 %74, ptr %4, align 4
  store i32 1, ptr %10, align 4
  br label %76

75:                                               ; preds = %64
  store i32 0, ptr %10, align 4
  br label %76

76:                                               ; preds = %75, %73
  call void @llvm.lifetime.end.p0(i64 4, ptr %12) #5
  %77 = load i32, ptr %10, align 4
  switch i32 %77, label %105 [
    i32 0, label %78
  ]

78:                                               ; preds = %76
  br label %79

79:                                               ; preds = %78, %59
  br label %80

80:                                               ; preds = %79
  br label %81

81:                                               ; preds = %80
  br label %82

82:                                               ; preds = %81
  %83 = load ptr, ptr %8, align 8, !tbaa !9
  %84 = getelementptr inbounds nuw %struct._abc_data, ptr %83, i32 0, i32 3
  %85 = load ptr, ptr %84, align 8, !tbaa !24
  %86 = icmp ne ptr %85, null
  br i1 %86, label %87, label %102

87:                                               ; preds = %82
  call void @llvm.lifetime.start.p0(i64 4, ptr %13) #5
  %88 = load ptr, ptr %6, align 8, !tbaa !9
  %89 = load ptr, ptr %8, align 8, !tbaa !9
  %90 = getelementptr inbounds nuw %struct._abc_data, ptr %89, i32 0, i32 3
  %91 = load ptr, ptr %90, align 8, !tbaa !24
  %92 = load ptr, ptr %7, align 8, !tbaa !9
  %93 = call i32 %88(ptr noundef %91, ptr noundef %92)
  store i32 %93, ptr %13, align 4, !tbaa !14
  %94 = load i32, ptr %13, align 4, !tbaa !14
  %95 = icmp ne i32 %94, 0
  br i1 %95, label %96, label %98

96:                                               ; preds = %87
  %97 = load i32, ptr %13, align 4, !tbaa !14
  store i32 %97, ptr %4, align 4
  store i32 1, ptr %10, align 4
  br label %99

98:                                               ; preds = %87
  store i32 0, ptr %10, align 4
  br label %99

99:                                               ; preds = %98, %96
  call void @llvm.lifetime.end.p0(i64 4, ptr %13) #5
  %100 = load i32, ptr %10, align 4
  switch i32 %100, label %105 [
    i32 0, label %101
  ]

101:                                              ; preds = %99
  br label %102

102:                                              ; preds = %101, %82
  br label %103

103:                                              ; preds = %102
  br label %104

104:                                              ; preds = %103
  store i32 0, ptr %4, align 4
  store i32 1, ptr %10, align 4
  br label %105

105:                                              ; preds = %104, %99, %76, %53, %30
  call void @llvm.lifetime.end.p0(i64 8, ptr %8) #5
  %106 = load i32, ptr %4, align 4
  ret i32 %106
}