; Function Attrs: nounwind uwtable
define internal i32 @abc_data_traverse(ptr noundef readonly captures(none) %0, ptr noundef readonly captures(none) %1, ptr noundef %2) #0 {
  %4 = getelementptr i8, ptr %0, i64 8
  %.val48 = load ptr, ptr %4, align 8, !tbaa !25
  %.not = icmp eq ptr %.val48, null
  br i1 %.not, label %7, label %5

5:                                                ; preds = %3
  %6 = tail call i32 %1(ptr noundef nonnull %.val48, ptr noundef %2) #4
  %.not41 = icmp eq i32 %6, 0
  br i1 %.not41, label %7, label %23

7:                                                ; preds = %3, %5
  %8 = getelementptr inbounds nuw i8, ptr %0, i64 16
  %9 = load ptr, ptr %8, align 8, !tbaa !50
  %.not42 = icmp eq ptr %9, null
  br i1 %.not42, label %12, label %10

10:                                               ; preds = %7
  %11 = tail call i32 %1(ptr noundef nonnull %9, ptr noundef %2) #4
  %.not43 = icmp eq i32 %11, 0
  br i1 %.not43, label %12, label %23

12:                                               ; preds = %7, %10
  %13 = getelementptr inbounds nuw i8, ptr %0, i64 24
  %14 = load ptr, ptr %13, align 8, !tbaa !51
  %.not44 = icmp eq ptr %14, null
  br i1 %.not44, label %17, label %15

15:                                               ; preds = %12
  %16 = tail call i32 %1(ptr noundef nonnull %14, ptr noundef %2) #4
  %.not45 = icmp eq i32 %16, 0
  br i1 %.not45, label %17, label %23

17:                                               ; preds = %12, %15
  %18 = getelementptr inbounds nuw i8, ptr %0, i64 32
  %19 = load ptr, ptr %18, align 8, !tbaa !52
  %.not46 = icmp eq ptr %19, null
  br i1 %.not46, label %22, label %20

20:                                               ; preds = %17
  %21 = tail call i32 %1(ptr noundef nonnull %19, ptr noundef %2) #4
  %.not47 = icmp eq i32 %21, 0
  br i1 %.not47, label %22, label %23

22:                                               ; preds = %20, %17
  br label %23

23:                                               ; preds = %5, %10, %15, %20, %22
  %.1 = phi i32 [ 0, %22 ], [ %21, %20 ], [ %16, %15 ], [ %11, %10 ], [ %6, %5 ]
  ret i32 %.1
}